target datalayout = "e-m:e-p270:32:32-p271:32:32-p272:64:64-i64:64-i128:128-f80:128-n8:16:32:64-S128"
target triple = "x86_64-pc-linux-gnu"

%struct.sp_int = type { i16, i16, [129 x i64] }
%struct.sp_int_minimal = type { i16, i16, [1 x i64] }

; Function Attrs: nounwind uwtable
define internal void @_sp_zero(ptr noundef %0) #0 {
  %2 = alloca ptr, align 8
  %3 = alloca ptr, align 8
  store ptr %0, ptr %2, align 8, !tbaa !3
  call void @llvm.lifetime.start.p0(i64 8, ptr %3) #8
  %4 = load ptr, ptr %2, align 8, !tbaa !3
  store ptr %4, ptr %3, align 8, !tbaa !10
  %5 = load ptr, ptr %3, align 8, !tbaa !10
  %6 = getelementptr inbounds nuw %struct.sp_int_minimal, ptr %5, i32 0, i32 0
  store i16 0, ptr %6, align 8, !tbaa !20
  %7 = load ptr, ptr %3, align 8, !tbaa !10
  %8 = getelementptr inbounds nuw %struct.sp_int_minimal, ptr %7, i32 0, i32 2
  %9 = getelementptr inbounds [1 x i64], ptr %8, i64 0, i64 0
  store i64 0, ptr %9, align 8, !tbaa !16
  call void @llvm.lifetime.end.p0(i64 8, ptr %3) #8
  ret void
}

; Function Attrs: nounwind uwtable
define void @sp_rshd(ptr noundef %0, i32 noundef %1) #0 {
  %3 = alloca ptr, align 8
  %4 = alloca i32, align 4
  %5 = alloca i16, align 2
  store ptr %0, ptr %3, align 8, !tbaa !3
  store i32 %1, ptr %4, align 4, !tbaa !8
  %6 = load ptr, ptr %3, align 8, !tbaa !3
  %7 = icmp ne ptr %6, null
  br i1 %7, label %8, label %59

8:                                                ; preds = %2
  %9 = load i32, ptr %4, align 4, !tbaa !8
  %10 = icmp sgt i32 %9, 0
  br i1 %10, label %11, label %59

11:                                               ; preds = %8
  %12 = load i32, ptr %4, align 4, !tbaa !8
  %13 = trunc i32 %12 to i16
  %14 = zext i16 %13 to i32
  %15 = load ptr, ptr %3, align 8, !tbaa !3
  %16 = getelementptr inbounds nuw %struct.sp_int, ptr %15, i32 0, i32 0
  %17 = load i16, ptr %16, align 8, !tbaa !15
  %18 = zext i16 %17 to i32
  %19 = icmp sge i32 %14, %18
  br i1 %19, label %20, label %22

20:                                               ; preds = %11
  %21 = load ptr, ptr %3, align 8, !tbaa !3
  call void @_sp_zero(ptr noundef %21)
  br label %58

22:                                               ; preds = %11
  call void @llvm.lifetime.start.p0(i64 2, ptr %5) #8
  %23 = load ptr, ptr %3, align 8, !tbaa !3
  %24 = getelementptr inbounds nuw %struct.sp_int, ptr %23, i32 0, i32 0
  %25 = load i16, ptr %24, align 8, !tbaa !15
  %26 = zext i16 %25 to i32
  %27 = load i32, ptr %4, align 4, !tbaa !8
  %28 = sub nsw i32 %26, %27
  %29 = trunc i32 %28 to i16
  %30 = load ptr, ptr %3, align 8, !tbaa !3
  %31 = getelementptr inbounds nuw %struct.sp_int, ptr %30, i32 0, i32 0
  store i16 %29, ptr %31, align 8, !tbaa !15
  store i16 0, ptr %5, align 2, !tbaa !32
  br label %32

32:                                               ; preds = %52, %22
  %33 = load i16, ptr %5, align 2, !tbaa !32
  %34 = zext i16 %33 to i32
  %35 = load ptr, ptr %3, align 8, !tbaa !3
  %36 = getelementptr inbounds nuw %struct.sp_int, ptr %35, i32 0, i32 0
  %37 = load i16, ptr %36, align 8, !tbaa !15
  %38 = zext i16 %37 to i32
  %39 = icmp slt i32 %34, %38
  br i1 %39, label %40, label %57

40:                                               ; preds = %32
  %41 = load ptr, ptr %3, align 8, !tbaa !3
  %42 = getelementptr inbounds nuw %struct.sp_int, ptr %41, i32 0, i32 2
  %43 = load i32, ptr %4, align 4, !tbaa !8
  %44 = sext i32 %43 to i64
  %45 = getelementptr inbounds [129 x i64], ptr %42, i64 0, i64 %44
  %46 = load i64, ptr %45, align 8, !tbaa !16
  %47 = load ptr, ptr %3, align 8, !tbaa !3
  %48 = getelementptr inbounds nuw %struct.sp_int, ptr %47, i32 0, i32 2
  %49 = load i16, ptr %5, align 2, !tbaa !32
  %50 = zext i16 %49 to i64
  %51 = getelementptr inbounds nuw [129 x i64], ptr %48, i64 0, i64 %50
  store i64 %46, ptr %51, align 8, !tbaa !16
  br label %52

52:                                               ; preds = %40
  %53 = load i16, ptr %5, align 2, !tbaa !32
  %54 = add i16 %53, 1
  store i16 %54, ptr %5, align 2, !tbaa !32
  %55 = load i32, ptr %4, align 4, !tbaa !8
  %56 = add nsw i32 %55, 1
  store i32 %56, ptr %4, align 4, !tbaa !8
  br label %32, !llvm.loop !79

57:                                               ; preds = %32
  call void @llvm.lifetime.end.p0(i64 2, ptr %5) #8
  br label %58

58:                                               ; preds = %57, %20
  br label %59

59:                                               ; preds = %58, %8, %2
  ret void
}