; Function Attrs: nofree norecurse nosync nounwind memory(argmem: readwrite) uwtable
define void @sp_rshd(ptr noundef captures(address_is_null) %0, i32 noundef %1) local_unnamed_addr #8 {
  %3 = icmp ne ptr %0, null
  %4 = icmp sgt i32 %1, 0
  %or.cond = and i1 %3, %4
  br i1 %or.cond, label %5, label %.loopexit

5:                                                ; preds = %2
  %6 = and i32 %1, 65535
  %7 = load i16, ptr %0, align 8, !tbaa !12
  %8 = zext i16 %7 to i32
  %.not = icmp samesign ult i32 %6, %8
  br i1 %.not, label %11, label %9

9:                                                ; preds = %5
  store i16 0, ptr %0, align 8, !tbaa !3
  %10 = getelementptr inbounds nuw i8, ptr %0, i64 8
  store i64 0, ptr %10, align 8, !tbaa !8
  br label %.loopexit

11:                                               ; preds = %5
  %12 = trunc i32 %1 to i16
  %13 = sub i16 %7, %12
  store i16 %13, ptr %0, align 8, !tbaa !12
  %.not22 = icmp eq i16 %7, %12
  br i1 %.not22, label %.loopexit, label %.lr.ph

.lr.ph:                                           ; preds = %11
  %14 = getelementptr inbounds nuw i8, ptr %0, i64 8
  %15 = zext nneg i32 %1 to i64
  %wide.trip.count = zext i16 %13 to i64
  br label %16

16:                                               ; preds = %.lr.ph, %16
  %indvars.iv23 = phi i64 [ %15, %.lr.ph ], [ %indvars.iv.next24, %16 ]
  %indvars.iv = phi i64 [ 0, %.lr.ph ], [ %indvars.iv.next, %16 ]
  %17 = getelementptr inbounds nuw [129 x i64], ptr %14, i64 0, i64 %indvars.iv23
  %18 = load i64, ptr %17, align 8, !tbaa !8
  %19 = getelementptr inbounds nuw [129 x i64], ptr %14, i64 0, i64 %indvars.iv
  store i64 %18, ptr %19, align 8, !tbaa !8
  %indvars.iv.next = add nuw nsw i64 %indvars.iv, 1
  %indvars.iv.next24 = add nuw nsw i64 %indvars.iv23, 1
  %exitcond.not = icmp eq i64 %indvars.iv.next, %wide.trip.count
  br i1 %exitcond.not, label %.loopexit, label %16, !llvm.loop !58

.loopexit:                                        ; preds = %16, %11, %9, %2
  ret void
}